target datalayout = "e-m:e-p270:32:32-p271:32:32-p272:64:64-i64:64-i128:128-f80:128-n8:16:32:64-S128"
target triple = "x86_64-pc-linux-gnu"

%class.fixed_bit_vector = type { [1 x i32] }
%class.vector.0 = type { ptr }

; Function Attrs: mustprogress nounwind uwtable
define linkonce_odr hidden noundef i32 @_ZN16fixed_bit_vector12get_pos_maskEj(i32 noundef %0) #4 comdat align 2 {
  %2 = alloca i32, align 4
  store i32 %0, ptr %2, align 4, !tbaa !20
  %3 = load i32, ptr %2, align 4, !tbaa !20
  %4 = urem i32 %3, 32
  %5 = shl i32 1, %4
  ret i32 %5
}

; Function Attrs: mustprogress nounwind uwtable
define linkonce_odr hidden noundef i32 @_ZNK16fixed_bit_vector12get_bit_wordEj(ptr noundef nonnull align 4 dereferenceable(4) %0, i32 noundef %1) #4 comdat align 2 {
  %3 = alloca ptr, align 8
  %4 = alloca i32, align 4
  store ptr %0, ptr %3, align 8, !tbaa !16
  store i32 %1, ptr %4, align 4, !tbaa !20
  %5 = load ptr, ptr %3, align 8
  %6 = getelementptr inbounds nuw %class.fixed_bit_vector, ptr %5, i32 0, i32 0
  %7 = load i32, ptr %4, align 4, !tbaa !20
  %8 = udiv i32 %7, 32
  %9 = zext i32 %8 to i64
  %10 = getelementptr inbounds nuw [1 x i32], ptr %6, i64 0, i64 %9
  %11 = load i32, ptr %10, align 4, !tbaa !20
  ret i32 %11
}

; Function Attrs: mustprogress uwtable
define linkonce_odr hidden noundef zeroext i1 @_ZNK16fixed_bit_vector3getEj(ptr noundef nonnull align 4 dereferenceable(4) %0, i32 noundef %1) #6 comdat align 2 {
  %3 = alloca ptr, align 8
  %4 = alloca i32, align 4
  store ptr %0, ptr %3, align 8, !tbaa !16
  store i32 %1, ptr %4, align 4, !tbaa !20
  %5 = load ptr, ptr %3, align 8
  %6 = load i32, ptr %4, align 4, !tbaa !20
  %7 = call noundef i32 @_ZNK16fixed_bit_vector12get_bit_wordEj(ptr noundef nonnull align 4 dereferenceable(4) %5, i32 noundef %6)
  %8 = load i32, ptr %4, align 4, !tbaa !20
  %9 = call noundef i32 @_ZN16fixed_bit_vector12get_pos_maskEj(i32 noundef %8)
  %10 = and i32 %7, %9
  %11 = icmp ne i32 %10, 0
  ret i1 %11
}

; Function Attrs: mustprogress uwtable
define linkonce_odr hidden noundef i32 @_ZNK3tbv3getEj(ptr noundef nonnull align 4 dereferenceable(4) %0, i32 noundef %1) #6 comdat align 2 {
  %3 = alloca ptr, align 8
  %4 = alloca i32, align 4
  store ptr %0, ptr %3, align 8, !tbaa !14
  store i32 %1, ptr %4, align 4, !tbaa !20
  %5 = load ptr, ptr %3, align 8
  %6 = load i32, ptr %4, align 4, !tbaa !20
  %7 = mul i32 %6, 2
  store i32 %7, ptr %4, align 4, !tbaa !20
  %8 = load i32, ptr %4, align 4, !tbaa !20
  %9 = call noundef zeroext i1 @_ZNK16fixed_bit_vector3getEj(ptr noundef nonnull align 4 dereferenceable(4) %5, i32 noundef %8)
  %10 = zext i1 %9 to i32
  %11 = shl i32 %10, 1
  %12 = load i32, ptr %4, align 4, !tbaa !20
  %13 = add i32 %12, 1
  %14 = call noundef zeroext i1 @_ZNK16fixed_bit_vector3getEj(ptr noundef nonnull align 4 dereferenceable(4) %5, i32 noundef %13)
  %15 = zext i1 %14 to i32
  %16 = or i32 %11, %15
  ret i32 %16
}

; Function Attrs: mustprogress uwtable
define linkonce_odr hidden noundef i32 @_ZNK3tbvixEj(ptr noundef nonnull align 4 dereferenceable(4) %0, i32 noundef %1) #6 comdat align 2 {
  %3 = alloca ptr, align 8
  %4 = alloca i32, align 4
  store ptr %0, ptr %3, align 8, !tbaa !14
  store i32 %1, ptr %4, align 4, !tbaa !20
  %5 = load ptr, ptr %3, align 8
  %6 = load i32, ptr %4, align 4, !tbaa !20
  %7 = call noundef i32 @_ZNK3tbv3getEj(ptr noundef nonnull align 4 dereferenceable(4) %5, i32 noundef %6)
  ret i32 %7
}

; Function Attrs: mustprogress nounwind uwtable
define linkonce_odr hidden noundef nonnull align 4 dereferenceable(4) ptr @_ZNK6vectorIjLb0EjEixEj(ptr noundef nonnull align 8 dereferenceable(8) %0, i32 noundef %1) #4 comdat align 2 {
  %3 = alloca ptr, align 8
  %4 = alloca i32, align 4
  store ptr %0, ptr %3, align 8, !tbaa !65
  store i32 %1, ptr %4, align 4, !tbaa !20
  %5 = load ptr, ptr %3, align 8
  %6 = getelementptr inbounds nuw %class.vector.0, ptr %5, i32 0, i32 0
  %7 = load ptr, ptr %6, align 8, !tbaa !67
  %8 = load i32, ptr %4, align 4, !tbaa !20
  %9 = zext i32 %8 to i64
  %10 = getelementptr inbounds nuw i32, ptr %7, i64 %9
  ret ptr %10
}

; Function Attrs: mustprogress nounwind uwtable
define linkonce_odr hidden noundef i32 @_ZNK6vectorIjLb0EjE4sizeEv(ptr noundef nonnull align 8 dereferenceable(8) %0) #4 comdat align 2 {
  %2 = alloca i32, align 4
  %3 = alloca ptr, align 8
  store ptr %0, ptr %3, align 8, !tbaa !65
  %4 = load ptr, ptr %3, align 8
  %5 = getelementptr inbounds nuw %class.vector.0, ptr %4, i32 0, i32 0
  %6 = load ptr, ptr %5, align 8, !tbaa !67
  %7 = icmp eq ptr %6, null
  br i1 %7, label %8, label %9

8:                                                ; preds = %1
  store i32 0, ptr %2, align 4
  br label %14

9:                                                ; preds = %1
  %10 = getelementptr inbounds nuw %class.vector.0, ptr %4, i32 0, i32 0
  %11 = load ptr, ptr %10, align 8, !tbaa !67
  %12 = getelementptr inbounds i32, ptr %11, i64 -1
  %13 = load i32, ptr %12, align 4, !tbaa !20
  store i32 %13, ptr %2, align 4
  br label %14

14:                                               ; preds = %9, %8
  %15 = load i32, ptr %2, align 4
  ret i32 %15
}

; Function Attrs: mustprogress uwtable
define hidden noundef zeroext i1 @_ZNK11tbv_manager8containsERK3tbvRK7svectorIjjES2_S6_(ptr noundef nonnull align 8 dereferenceable(552) %0, ptr noundef nonnull align 4 dereferenceable(4) %1, ptr noundef nonnull align 8 dereferenceable(8) %2, ptr noundef nonnull align 4 dereferenceable(4) %3, ptr noundef nonnull align 8 dereferenceable(8) %4) #6 align 2 {
  %6 = alloca i1, align 1
  %7 = alloca ptr, align 8
  %8 = alloca ptr, align 8
  %9 = alloca ptr, align 8
  %10 = alloca ptr, align 8
  %11 = alloca ptr, align 8
  %12 = alloca i32, align 4
  %13 = alloca i32, align 4
  %14 = alloca i32, align 4
  store ptr %0, ptr %7, align 8, !tbaa !7
  store ptr %1, ptr %8, align 8, !tbaa !14
  store ptr %2, ptr %9, align 8, !tbaa !62
  store ptr %3, ptr %10, align 8, !tbaa !14
  store ptr %4, ptr %11, align 8, !tbaa !62
  call void @llvm.lifetime.start.p0(i64 4, ptr %12) #3
  store i32 0, ptr %12, align 4, !tbaa !20
  br label %15

15:                                               ; preds = %45, %5
  %16 = load i32, ptr %12, align 4, !tbaa !20
  %17 = load ptr, ptr %9, align 8, !tbaa !62
  %18 = call noundef i32 @_ZNK6vectorIjLb0EjE4sizeEv(ptr noundef nonnull align 8 dereferenceable(8) %17)
  %19 = icmp ult i32 %16, %18
  br i1 %19, label %21, label %20

20:                                               ; preds = %15
  store i32 2, ptr %13, align 4
  br label %48

21:                                               ; preds = %15
  call void @llvm.lifetime.start.p0(i64 4, ptr %14) #3
  %22 = load ptr, ptr %8, align 8, !tbaa !14
  %23 = load ptr, ptr %9, align 8, !tbaa !62
  %24 = load i32, ptr %12, align 4, !tbaa !20
  %25 = call noundef nonnull align 4 dereferenceable(4) ptr @_ZNK6vectorIjLb0EjEixEj(ptr noundef nonnull align 8 dereferenceable(8) %23, i32 noundef %24)
  %26 = load i32, ptr %25, align 4, !tbaa !20
  %27 = call noundef i32 @_ZNK3tbvixEj(ptr noundef nonnull align 4 dereferenceable(4) %22, i32 noundef %26)
  store i32 %27, ptr %14, align 4, !tbaa !26
  %28 = load i32, ptr %14, align 4, !tbaa !26
  %29 = icmp eq i32 %28, 3
  br i1 %29, label %30, label %31

30:                                               ; preds = %21
  store i32 4, ptr %13, align 4
  br label %42

31:                                               ; preds = %21
  %32 = load i32, ptr %14, align 4, !tbaa !26
  %33 = load ptr, ptr %10, align 8, !tbaa !14
  %34 = load ptr, ptr %11, align 8, !tbaa !62
  %35 = load i32, ptr %12, align 4, !tbaa !20
  %36 = call noundef nonnull align 4 dereferenceable(4) ptr @_ZNK6vectorIjLb0EjEixEj(ptr noundef nonnull align 8 dereferenceable(8) %34, i32 noundef %35)
  %37 = load i32, ptr %36, align 4, !tbaa !20
  %38 = call noundef i32 @_ZNK3tbvixEj(ptr noundef nonnull align 4 dereferenceable(4) %33, i32 noundef %37)
  %39 = icmp ne i32 %32, %38
  br i1 %39, label %40, label %41

40:                                               ; preds = %31
  store i1 false, ptr %6, align 1
  store i32 1, ptr %13, align 4
  br label %42

41:                                               ; preds = %31
  store i32 0, ptr %13, align 4
  br label %42

42:                                               ; preds = %41, %40, %30
  call void @llvm.lifetime.end.p0(i64 4, ptr %14) #3
  %43 = load i32, ptr %13, align 4
  switch i32 %43, label %48 [
    i32 0, label %44
    i32 4, label %45
  ]

44:                                               ; preds = %42
  br label %45

45:                                               ; preds = %44, %42
  %46 = load i32, ptr %12, align 4, !tbaa !20
  %47 = add i32 %46, 1
  store i32 %47, ptr %12, align 4, !tbaa !20
  br label %15, !llvm.loop !64

48:                                               ; preds = %42, %20
  call void @llvm.lifetime.end.p0(i64 4, ptr %12) #3
  %49 = load i32, ptr %13, align 4
  switch i32 %49, label %53 [
    i32 2, label %50
    i32 1, label %51
  ]

50:                                               ; preds = %48
  store i1 true, ptr %6, align 1
  br label %51

51:                                               ; preds = %50, %48
  %52 = load i1, ptr %6, align 1
  ret i1 %52

53:                                               ; preds = %48
  unreachable
}